target datalayout = "e-m:e-p270:32:32-p271:32:32-p272:64:64-i64:64-i128:128-f80:128-n8:16:32:64-S128"
target triple = "x86_64-pc-linux-gnu"

%class.elapsedTimer = type <{ i64, i64, i8, [7 x i8] }>

; Function Attrs: mustprogress nounwind uwtable
define linkonce_odr hidden noundef i64 @_ZNK12elapsedTimer5ticksEv(ptr noundef nonnull align 8 dereferenceable(17) %0) #1 comdat align 2 {
  %2 = alloca ptr, align 8
  store ptr %0, ptr %2, align 8
  %3 = load ptr, ptr %2, align 8
  %4 = getelementptr inbounds %class.elapsedTimer, ptr %3, i32 0, i32 0
  %5 = load i64, ptr %4, align 8
  ret i64 %5
}

; Function Attrs: mustprogress nounwind uwtable
define hidden noundef i64 @_ZNK12elapsedTimer12active_ticksEv(ptr noundef nonnull align 8 dereferenceable(17) %0) #1 align 2 {
  %2 = alloca i64, align 8
  %3 = alloca ptr, align 8
  %4 = alloca i64, align 8
  store ptr %0, ptr %3, align 8
  %5 = load ptr, ptr %3, align 8
  %6 = getelementptr inbounds %class.elapsedTimer, ptr %5, i32 0, i32 2
  %7 = load i8, ptr %6, align 8
  %8 = trunc i8 %7 to i1
  br i1 %8, label %11, label %9

9:                                                ; preds = %1
  %10 = call noundef i64 @_ZNK12elapsedTimer5ticksEv(ptr noundef nonnull align 8 dereferenceable(17) %5)
  store i64 %10, ptr %2, align 8
  br label %20

11:                                               ; preds = %1
  %12 = getelementptr inbounds %class.elapsedTimer, ptr %5, i32 0, i32 0
  %13 = load i64, ptr %12, align 8
  %14 = call noundef i64 @_ZN2os15elapsed_counterEv()
  %15 = add nsw i64 %13, %14
  %16 = getelementptr inbounds %class.elapsedTimer, ptr %5, i32 0, i32 1
  %17 = load i64, ptr %16, align 8
  %18 = sub nsw i64 %15, %17
  store i64 %18, ptr %4, align 8
  %19 = load i64, ptr %4, align 8
  store i64 %19, ptr %2, align 8
  br label %20

20:                                               ; preds = %11, %9
  %21 = load i64, ptr %2, align 8
  ret i64 %21
}