; Function Attrs: mustprogress nounwind uwtable
define hidden noundef i64 @_ZNK12elapsedTimer12active_ticksEv(ptr nocapture noundef nonnull readonly align 8 dereferenceable(17) %0) local_unnamed_addr #0 align 2 {
  %2 = getelementptr inbounds i8, ptr %0, i64 16
  %3 = load i8, ptr %2, align 8
  %4 = trunc i8 %3 to i1
  %5 = load i64, ptr %0, align 8
  br i1 %4, label %6, label %12

6:                                                ; preds = %1
  %7 = tail call noundef i64 @_ZN2os15elapsed_counterEv() #6
  %8 = add nsw i64 %7, %5
  %9 = getelementptr inbounds i8, ptr %0, i64 8
  %10 = load i64, ptr %9, align 8
  %11 = sub i64 %8, %10
  br label %12

12:                                               ; preds = %1, %6
  %.0 = phi i64 [ %11, %6 ], [ %5, %1 ]
  ret i64 %.0
}